target datalayout = "e-m:e-p270:32:32-p271:32:32-p272:64:64-i64:64-i128:128-f80:128-n8:16:32:64-S128"
target triple = "x86_64-pc-linux-gnu"

@.str.906 = private unnamed_addr constant [32 x i8] c"Enhanced Trading Interface 10.0\00", align 1
@.str.907 = private unnamed_addr constant [4 x i8] c"ETI\00", align 1
@.str.908 = private unnamed_addr constant [4 x i8] c"eti\00", align 1
@proto_eti = internal global i32 0, align 4
@eti_handle = internal global ptr null, align 8

; Function Attrs: null_pointer_is_valid sspstrong uwtable
define hidden void @proto_register_eti() #0 {
  %1 = alloca ptr, align 8
  %2 = call i32 @proto_register_protocol(ptr noundef @.str.906, ptr noundef @.str.907, ptr noundef @.str.908)
  store i32 %2, ptr @proto_eti, align 4
  call void @llvm.lifetime.start.p0(i64 8, ptr %1) #5
  %3 = load i32, ptr @proto_eti, align 4
  %4 = call ptr @expert_register_protocol(i32 noundef %3)
  store ptr %4, ptr %1, align 8
  %5 = load ptr, ptr %1, align 8
  call void @expert_register_field_array(ptr noundef %5, ptr noundef @proto_register_eti.ei, i32 noundef 6)
  %6 = load i32, ptr @proto_eti, align 4
  call void @proto_register_field_array(i32 noundef %6, ptr noundef @proto_register_eti.hf, i32 noundef 447)
  call void @proto_register_subtree_array(ptr noundef @proto_register_eti.ett, i32 noundef 54)
  %7 = load i32, ptr @proto_eti, align 4
  %8 = call ptr @register_dissector(ptr noundef @.str.908, ptr noundef @dissect_eti, i32 noundef %7)
  store ptr %8, ptr @eti_handle, align 8
  call void @llvm.lifetime.end.p0(i64 8, ptr %1) #5
  ret void
}