; Function Attrs: null_pointer_is_valid sspstrong uwtable
define hidden void @proto_register_eti() local_unnamed_addr #0 {
  %1 = tail call i32 @proto_register_protocol(ptr noundef nonnull @.str.906, ptr noundef nonnull @.str.907, ptr noundef nonnull @.str.908)
  store i32 %1, ptr @proto_eti, align 4
  %2 = tail call ptr @expert_register_protocol(i32 noundef %1)
  tail call void @expert_register_field_array(ptr noundef %2, ptr noundef nonnull @proto_register_eti.ei, i32 noundef 6)
  %3 = load i32, ptr @proto_eti, align 4
  tail call void @proto_register_field_array(i32 noundef %3, ptr noundef nonnull @proto_register_eti.hf, i32 noundef 447)
  tail call void @proto_register_subtree_array(ptr noundef nonnull @proto_register_eti.ett, i32 noundef 54)
  %4 = load i32, ptr @proto_eti, align 4
  %5 = tail call ptr @register_dissector(ptr noundef nonnull @.str.908, ptr noundef nonnull @dissect_eti, i32 noundef %4)
  store ptr %5, ptr @eti_handle, align 8
  ret void
}